; Function Attrs: mustprogress uwtable
define noalias noundef nonnull ptr @_ZNK7rocksdb19WriteBatchWithIndex11NewIteratorEj(ptr noundef nonnull readonly align 8 captures(none) dereferenceable(16) %0, i32 noundef %1) local_unnamed_addr #4 align 2 personality ptr @__gxx_personality_v0 {
  %3 = tail call noalias noundef nonnull dereferenceable(72) ptr @_Znwm(i64 noundef 72) #27
  %4 = getelementptr inbounds nuw i8, ptr %0, i64 8
  %5 = load ptr, ptr %4, align 8, !tbaa !202
  %6 = getelementptr inbounds nuw i8, ptr %5, i64 2496
  %7 = getelementptr inbounds nuw i8, ptr %5, i64 160
  store ptr getelementptr inbounds nuw inrange(-16, 104) (i8, ptr @_ZTVN7rocksdb16WBWIIteratorImplE, i64 16), ptr %3, align 8, !tbaa !88
  %8 = getelementptr inbounds nuw i8, ptr %3, i64 8
  store i32 %1, ptr %8, align 8, !tbaa !90
  %9 = getelementptr inbounds nuw i8, ptr %3, i64 16
  store ptr %6, ptr %9, align 8, !tbaa !95
  %10 = getelementptr inbounds nuw i8, ptr %3, i64 24
  store ptr null, ptr %10, align 8, !tbaa !96
  %11 = getelementptr inbounds nuw i8, ptr %3, i64 32
  store ptr %5, ptr %11, align 8, !tbaa !97
  %12 = getelementptr inbounds nuw i8, ptr %3, i64 40
  store ptr %7, ptr %12, align 8, !tbaa !98
  %13 = getelementptr inbounds nuw i8, ptr %3, i64 48
  tail call void @llvm.memset.p0.i64(ptr noundef nonnull align 8 dereferenceable(17) %13, i8 0, i64 17, i1 false)
  ret ptr %3
}